; Function Attrs: mustprogress nofree norecurse nosync nounwind willreturn memory(argmem: read) uwtable
define hidden noundef i32 @_ZN10duckdb_re26utflenEPKc(ptr noundef readonly captures(none) %0) local_unnamed_addr #2 {
  br label %2

2:                                                ; preds = %_ZN10duckdb_re210chartoruneEPiPKc.exit, %1
  %.07 = phi ptr [ %0, %1 ], [ %41, %_ZN10duckdb_re210chartoruneEPiPKc.exit ]
  %.0 = phi i32 [ 0, %1 ], [ %42, %_ZN10duckdb_re210chartoruneEPiPKc.exit ]
  %3 = load i8, ptr %.07, align 1, !tbaa !3
  %4 = icmp sgt i8 %3, -1
  br i1 %4, label %5, label %8

5:                                                ; preds = %2
  %6 = icmp eq i8 %3, 0
  br i1 %6, label %7, label %_ZN10duckdb_re210chartoruneEPiPKc.exit

7:                                                ; preds = %5
  ret i32 %.0

8:                                                ; preds = %2
  %9 = zext i8 %3 to i32
  %10 = getelementptr inbounds nuw i8, ptr %.07, i64 1
  %11 = load i8, ptr %10, align 1, !tbaa !3
  %12 = xor i8 %11, -128
  %13 = zext i8 %12 to i32
  %.not.i = icmp ult i8 %12, 64
  br i1 %.not.i, label %14, label %40

14:                                               ; preds = %8
  %15 = icmp samesign ult i8 %3, -32
  br i1 %15, label %16, label %22

16:                                               ; preds = %14
  %17 = icmp samesign ult i8 %3, -64
  br i1 %17, label %40, label %18

18:                                               ; preds = %16
  %19 = shl nuw nsw i32 %9, 6
  %.masked41.i = and i32 %19, 1920
  %20 = or disjoint i32 %.masked41.i, %13
  %21 = icmp samesign ult i32 %20, 128
  br i1 %21, label %40, label %_ZN10duckdb_re210chartoruneEPiPKc.exit

22:                                               ; preds = %14
  %23 = getelementptr inbounds nuw i8, ptr %.07, i64 2
  %24 = load i8, ptr %23, align 1, !tbaa !3
  %.not38.i = icmp slt i8 %24, -64
  br i1 %.not38.i, label %25, label %40

25:                                               ; preds = %22
  %26 = icmp samesign ult i8 %3, -16
  br i1 %26, label %27, label %31

27:                                               ; preds = %25
  %28 = shl nuw nsw i32 %9, 12
  %29 = shl nuw nsw i32 %13, 6
  %.masked40.i = and i32 %28, 61440
  %.masked39.i = or disjoint i32 %29, %.masked40.i
  %30 = icmp samesign ult i32 %.masked39.i, 2048
  br i1 %30, label %40, label %_ZN10duckdb_re210chartoruneEPiPKc.exit

31:                                               ; preds = %25
  %32 = getelementptr inbounds nuw i8, ptr %.07, i64 3
  %33 = load i8, ptr %32, align 1, !tbaa !3
  %34 = icmp slt i8 %33, -64
  %35 = icmp samesign ult i8 %3, -8
  %or.cond.i = and i1 %35, %34
  br i1 %or.cond.i, label %36, label %40

36:                                               ; preds = %31
  %37 = shl nuw nsw i32 %9, 18
  %38 = shl nuw nsw i32 %13, 12
  %.masked = and i32 %37, 1835008
  %.masked.i = or disjoint i32 %38, %.masked
  %39 = icmp samesign ult i32 %.masked.i, 65536
  br i1 %39, label %40, label %_ZN10duckdb_re210chartoruneEPiPKc.exit

40:                                               ; preds = %36, %31, %27, %22, %18, %16, %8
  br label %_ZN10duckdb_re210chartoruneEPiPKc.exit

_ZN10duckdb_re210chartoruneEPiPKc.exit:           ; preds = %40, %18, %27, %36, %5
  %.0.i.sink = phi i64 [ 1, %5 ], [ 1, %40 ], [ 2, %18 ], [ 3, %27 ], [ 4, %36 ]
  %41 = getelementptr inbounds nuw i8, ptr %.07, i64 %.0.i.sink
  %42 = add nuw nsw i32 %.0, 1
  br label %2, !llvm.loop !8
}